target datalayout = "e-m:e-p270:32:32-p271:32:32-p272:64:64-i64:64-i128:128-f80:128-n8:16:32:64-S128"
target triple = "x86_64-pc-linux-gnu"

%struct.MyData = type { ptr, i64, i64 }

; Function Attrs: nounwind uwtable
define internal i64 @MyRead(ptr noundef %0, ptr noundef %1, i64 noundef %2) #0 {
  %4 = alloca ptr, align 8
  %5 = alloca ptr, align 8
  %6 = alloca i64, align 8
  %7 = alloca ptr, align 8
  store ptr %0, ptr %4, align 8, !tbaa !37
  store ptr %1, ptr %5, align 8, !tbaa !37
  store i64 %2, ptr %6, align 8, !tbaa !9
  call void @llvm.lifetime.start.p0(i64 8, ptr %7) #6
  %8 = load ptr, ptr %4, align 8, !tbaa !37
  store ptr %8, ptr %7, align 8, !tbaa !37
  %9 = load ptr, ptr %7, align 8, !tbaa !37
  %10 = getelementptr inbounds nuw %struct.MyData, ptr %9, i32 0, i32 2
  %11 = load i64, ptr %10, align 8, !tbaa !20
  %12 = load i64, ptr %6, align 8, !tbaa !9
  %13 = add i64 %11, %12
  %14 = load ptr, ptr %7, align 8, !tbaa !37
  %15 = getelementptr inbounds nuw %struct.MyData, ptr %14, i32 0, i32 1
  %16 = load i64, ptr %15, align 8, !tbaa !19
  %17 = icmp ugt i64 %13, %16
  br i1 %17, label %18, label %26

18:                                               ; preds = %3
  %19 = load ptr, ptr %7, align 8, !tbaa !37
  %20 = getelementptr inbounds nuw %struct.MyData, ptr %19, i32 0, i32 1
  %21 = load i64, ptr %20, align 8, !tbaa !19
  %22 = load ptr, ptr %7, align 8, !tbaa !37
  %23 = getelementptr inbounds nuw %struct.MyData, ptr %22, i32 0, i32 2
  %24 = load i64, ptr %23, align 8, !tbaa !20
  %25 = sub i64 %21, %24
  store i64 %25, ptr %6, align 8, !tbaa !9
  br label %26

26:                                               ; preds = %18, %3
  %27 = load i64, ptr %6, align 8, !tbaa !9
  %28 = icmp sgt i64 %27, 0
  br i1 %28, label %29, label %44

29:                                               ; preds = %26
  %30 = load ptr, ptr %5, align 8, !tbaa !37
  %31 = load ptr, ptr %7, align 8, !tbaa !37
  %32 = getelementptr inbounds nuw %struct.MyData, ptr %31, i32 0, i32 0
  %33 = load ptr, ptr %32, align 8, !tbaa !17
  %34 = load ptr, ptr %7, align 8, !tbaa !37
  %35 = getelementptr inbounds nuw %struct.MyData, ptr %34, i32 0, i32 2
  %36 = load i64, ptr %35, align 8, !tbaa !20
  %37 = getelementptr inbounds nuw i8, ptr %33, i64 %36
  %38 = load i64, ptr %6, align 8, !tbaa !9
  call void @llvm.memcpy.p0.p0.i64(ptr align 1 %30, ptr align 1 %37, i64 %38, i1 false)
  %39 = load i64, ptr %6, align 8, !tbaa !9
  %40 = load ptr, ptr %7, align 8, !tbaa !37
  %41 = getelementptr inbounds nuw %struct.MyData, ptr %40, i32 0, i32 2
  %42 = load i64, ptr %41, align 8, !tbaa !20
  %43 = add i64 %42, %39
  store i64 %43, ptr %41, align 8, !tbaa !20
  br label %44

44:                                               ; preds = %29, %26
  %45 = load i64, ptr %6, align 8, !tbaa !9
  call void @llvm.lifetime.end.p0(i64 8, ptr %7) #6
  ret i64 %45
}