; Function Attrs: mustprogress nofree norecurse nosync nounwind willreturn memory(readwrite, inaccessiblemem: none) uwtable
define internal i64 @MyRead(ptr noundef captures(none) %0, ptr noundef writeonly captures(none) %1, i64 noundef %2) #3 {
  %4 = getelementptr inbounds nuw i8, ptr %0, i64 16
  %5 = load i64, ptr %4, align 8, !tbaa !12
  %6 = add i64 %5, %2
  %7 = getelementptr inbounds nuw i8, ptr %0, i64 8
  %8 = load i64, ptr %7, align 8, !tbaa !11
  %9 = icmp ugt i64 %6, %8
  %10 = sub i64 %8, %5
  %spec.select = select i1 %9, i64 %10, i64 %2
  %11 = icmp sgt i64 %spec.select, 0
  br i1 %11, label %12, label %17

12:                                               ; preds = %3
  %13 = load ptr, ptr %0, align 8, !tbaa !4
  %14 = getelementptr inbounds nuw i8, ptr %13, i64 %5
  tail call void @llvm.memcpy.p0.p0.i64(ptr align 1 %1, ptr align 1 %14, i64 %spec.select, i1 false)
  %15 = load i64, ptr %4, align 8, !tbaa !12
  %16 = add i64 %15, %spec.select
  store i64 %16, ptr %4, align 8, !tbaa !12
  br label %17

17:                                               ; preds = %12, %3
  ret i64 %spec.select
}